target datalayout = "e-m:e-p270:32:32-p271:32:32-p272:64:64-i64:64-i128:128-f80:128-n8:16:32:64-S128"
target triple = "x86_64-pc-linux-gnu"

%"class.gmx::internal::SelectionData" = type <{ %"class.std::__cxx11::basic_string", %"class.std::__cxx11::basic_string", %struct.gmx_ana_pos_t, %"class.std::vector", %"class.std::vector", %"class.gmx::FlagsTemplate", ptr, i32, float, float, i8, i8, [2 x i8] }>
%"class.std::__cxx11::basic_string" = type { %"struct.std::__cxx11::basic_string<char>::_Alloc_hider", i64, %union.anon }
%"struct.std::__cxx11::basic_string<char>::_Alloc_hider" = type { ptr }
%union.anon = type { i64, [8 x i8] }
%struct.gmx_ana_pos_t = type <{ ptr, ptr, ptr, %struct.gmx_ana_indexmap_t, i32, [4 x i8] }>
%struct.gmx_ana_indexmap_t = type { i32, ptr, ptr, %struct.t_blocka, ptr, %struct.t_blocka, i8 }
%struct.t_blocka = type { i32, ptr, i32, ptr, i32, i32 }
%"class.std::vector" = type { %"struct.std::_Vector_base" }
%"struct.std::_Vector_base" = type { %"struct.std::_Vector_base<float, std::allocator<float>>::_Vector_impl" }
%"struct.std::_Vector_base<float, std::allocator<float>>::_Vector_impl" = type { %"struct.std::_Vector_base<float, std::allocator<float>>::_Vector_impl_data" }
%"struct.std::_Vector_base<float, std::allocator<float>>::_Vector_impl_data" = type { ptr, ptr, ptr }
%"class.gmx::FlagsTemplate" = type { i64 }
%"class.gmx::Selection" = type { ptr }

@.str.8 = private unnamed_addr constant [34 x i8] c"\22%s\22 (%d position%s, %d atom%s%s)\00", align 1
@.str.9 = private unnamed_addr constant [1 x i8] zeroinitializer, align 1
@.str.10 = private unnamed_addr constant [2 x i8] c"s\00", align 1
@.str.11 = private unnamed_addr constant [10 x i8] c", dynamic\00", align 1
@.str.12 = private unnamed_addr constant [2 x i8] c"\0A\00", align 1

; Function Attrs: mustprogress nounwind uwtable
define linkonce_odr noundef i32 @_ZNK13gmx_ana_pos_t5countEv(ptr noundef nonnull align 8 dereferenceable(148) %0) #1 comdat align 2 {
  %2 = alloca ptr, align 8
  store ptr %0, ptr %2, align 8
  %3 = load ptr, ptr %2, align 8
  %4 = getelementptr inbounds %struct.gmx_ana_pos_t, ptr %3, i32 0, i32 3
  %5 = getelementptr inbounds %struct.gmx_ana_indexmap_t, ptr %4, i32 0, i32 3
  %6 = getelementptr inbounds %struct.t_blocka, ptr %5, i32 0, i32 0
  %7 = load i32, ptr %6, align 8
  ret i32 %7
}

; Function Attrs: mustprogress nounwind uwtable
define linkonce_odr noundef zeroext i1 @_ZNK3gmx8internal13SelectionData9isDynamicEv(ptr noundef nonnull align 8 dereferenceable(294) %0) #1 comdat align 2 {
  %2 = alloca ptr, align 8
  store ptr %0, ptr %2, align 8
  %3 = load ptr, ptr %2, align 8
  %4 = getelementptr inbounds %"class.gmx::internal::SelectionData", ptr %3, i32 0, i32 10
  %5 = load i8, ptr %4, align 4
  %6 = trunc i8 %5 to i1
  ret i1 %6
}

; Function Attrs: mustprogress uwtable
define linkonce_odr noundef i32 @_ZNK3gmx8internal13SelectionData8posCountEv(ptr noundef nonnull align 8 dereferenceable(294) %0) #0 comdat align 2 {
  %2 = alloca ptr, align 8
  store ptr %0, ptr %2, align 8
  %3 = load ptr, ptr %2, align 8
  %4 = getelementptr inbounds %"class.gmx::internal::SelectionData", ptr %3, i32 0, i32 2
  %5 = call noundef i32 @_ZNK13gmx_ana_pos_t5countEv(ptr noundef nonnull align 8 dereferenceable(148) %4)
  ret i32 %5
}

; Function Attrs: mustprogress nounwind uwtable
define linkonce_odr noundef ptr @_ZNK3gmx8internal13SelectionData4nameEv(ptr noundef nonnull align 8 dereferenceable(294) %0) #1 comdat align 2 {
  %2 = alloca ptr, align 8
  store ptr %0, ptr %2, align 8
  %3 = load ptr, ptr %2, align 8
  %4 = getelementptr inbounds %"class.gmx::internal::SelectionData", ptr %3, i32 0, i32 0
  %5 = call noundef ptr @_ZNKSt7__cxx1112basic_stringIcSt11char_traitsIcESaIcEE5c_strEv(ptr noundef nonnull align 8 dereferenceable(32) %4) #11
  ret ptr %5
}

; Function Attrs: mustprogress nounwind uwtable
define linkonce_odr noundef nonnull align 8 dereferenceable(294) ptr @_ZNK3gmx9Selection4dataEv(ptr noundef nonnull align 8 dereferenceable(8) %0) #1 comdat align 2 {
  %2 = alloca ptr, align 8
  store ptr %0, ptr %2, align 8
  %3 = load ptr, ptr %2, align 8
  %4 = getelementptr inbounds %"class.gmx::Selection", ptr %3, i32 0, i32 0
  %5 = load ptr, ptr %4, align 8
  ret ptr %5
}

; Function Attrs: mustprogress nounwind uwtable
define linkonce_odr noundef zeroext i1 @_ZNK3gmx9Selection9isDynamicEv(ptr noundef nonnull align 8 dereferenceable(8) %0) #1 comdat align 2 {
  %2 = alloca ptr, align 8
  store ptr %0, ptr %2, align 8
  %3 = load ptr, ptr %2, align 8
  %4 = call noundef nonnull align 8 dereferenceable(294) ptr @_ZNK3gmx9Selection4dataEv(ptr noundef nonnull align 8 dereferenceable(8) %3)
  %5 = call noundef zeroext i1 @_ZNK3gmx8internal13SelectionData9isDynamicEv(ptr noundef nonnull align 8 dereferenceable(294) %4)
  ret i1 %5
}

; Function Attrs: mustprogress nounwind uwtable
define linkonce_odr noundef i32 @_ZNK3gmx9Selection9atomCountEv(ptr noundef nonnull align 8 dereferenceable(8) %0) #1 comdat align 2 {
  %2 = alloca ptr, align 8
  store ptr %0, ptr %2, align 8
  %3 = load ptr, ptr %2, align 8
  %4 = call noundef nonnull align 8 dereferenceable(294) ptr @_ZNK3gmx9Selection4dataEv(ptr noundef nonnull align 8 dereferenceable(8) %3)
  %5 = getelementptr inbounds %"class.gmx::internal::SelectionData", ptr %4, i32 0, i32 2
  %6 = getelementptr inbounds %struct.gmx_ana_pos_t, ptr %5, i32 0, i32 3
  %7 = getelementptr inbounds %struct.gmx_ana_indexmap_t, ptr %6, i32 0, i32 3
  %8 = getelementptr inbounds %struct.t_blocka, ptr %7, i32 0, i32 2
  %9 = load i32, ptr %8, align 8
  ret i32 %9
}

; Function Attrs: mustprogress uwtable
define linkonce_odr noundef i32 @_ZNK3gmx9Selection8posCountEv(ptr noundef nonnull align 8 dereferenceable(8) %0) #0 comdat align 2 {
  %2 = alloca ptr, align 8
  store ptr %0, ptr %2, align 8
  %3 = load ptr, ptr %2, align 8
  %4 = call noundef nonnull align 8 dereferenceable(294) ptr @_ZNK3gmx9Selection4dataEv(ptr noundef nonnull align 8 dereferenceable(8) %3)
  %5 = call noundef i32 @_ZNK3gmx8internal13SelectionData8posCountEv(ptr noundef nonnull align 8 dereferenceable(294) %4)
  ret i32 %5
}

; Function Attrs: mustprogress uwtable
define linkonce_odr noundef ptr @_ZNK3gmx9Selection4nameEv(ptr noundef nonnull align 8 dereferenceable(8) %0) #0 comdat align 2 {
  %2 = alloca ptr, align 8
  store ptr %0, ptr %2, align 8
  %3 = load ptr, ptr %2, align 8
  %4 = call noundef nonnull align 8 dereferenceable(294) ptr @_ZNK3gmx9Selection4dataEv(ptr noundef nonnull align 8 dereferenceable(8) %3)
  %5 = call noundef ptr @_ZNK3gmx8internal13SelectionData4nameEv(ptr noundef nonnull align 8 dereferenceable(294) %4)
  ret ptr %5
}

; Function Attrs: mustprogress uwtable
define void @_ZNK3gmx9Selection9printInfoEP8_IO_FILE(ptr noundef nonnull align 8 dereferenceable(8) %0, ptr noundef %1) #0 align 2 {
  %3 = alloca ptr, align 8
  %4 = alloca ptr, align 8
  store ptr %0, ptr %3, align 8
  store ptr %1, ptr %4, align 8
  %5 = load ptr, ptr %3, align 8
  %6 = load ptr, ptr %4, align 8
  %7 = call noundef ptr @_ZNK3gmx9Selection4nameEv(ptr noundef nonnull align 8 dereferenceable(8) %5)
  %8 = call noundef i32 @_ZNK3gmx9Selection8posCountEv(ptr noundef nonnull align 8 dereferenceable(8) %5)
  %9 = call noundef i32 @_ZNK3gmx9Selection8posCountEv(ptr noundef nonnull align 8 dereferenceable(8) %5)
  %10 = icmp eq i32 %9, 1
  %11 = select i1 %10, ptr @.str.9, ptr @.str.10
  %12 = call noundef i32 @_ZNK3gmx9Selection9atomCountEv(ptr noundef nonnull align 8 dereferenceable(8) %5)
  %13 = call noundef i32 @_ZNK3gmx9Selection9atomCountEv(ptr noundef nonnull align 8 dereferenceable(8) %5)
  %14 = icmp eq i32 %13, 1
  %15 = select i1 %14, ptr @.str.9, ptr @.str.10
  %16 = call noundef zeroext i1 @_ZNK3gmx9Selection9isDynamicEv(ptr noundef nonnull align 8 dereferenceable(8) %5)
  %17 = select i1 %16, ptr @.str.11, ptr @.str.9
  %18 = call i32 (ptr, ptr, ...) @fprintf(ptr noundef %6, ptr noundef @.str.8, ptr noundef %7, i32 noundef %8, ptr noundef %11, i32 noundef %12, ptr noundef %15, ptr noundef %17) #11
  %19 = load ptr, ptr %4, align 8
  %20 = call i32 (ptr, ptr, ...) @fprintf(ptr noundef %19, ptr noundef @.str.12) #11
  ret void
}