; Function Attrs: mustprogress nounwind uwtable
define void @_ZNK3gmx9Selection9printInfoEP8_IO_FILE(ptr nocapture noundef nonnull readonly align 8 dereferenceable(8) %0, ptr nocapture noundef %1) local_unnamed_addr #3 align 2 {
  %3 = load ptr, ptr %0, align 8
  %4 = tail call noundef ptr @_ZNKSt7__cxx1112basic_stringIcSt11char_traitsIcESaIcEE5c_strEv(ptr noundef nonnull align 8 dereferenceable(32) %3) #19
  %5 = load ptr, ptr %0, align 8
  %6 = getelementptr inbounds i8, ptr %5, i64 112
  %7 = load i32, ptr %6, align 8
  %8 = icmp eq i32 %7, 1
  %9 = select i1 %8, ptr @.str.9, ptr @.str.10
  %10 = getelementptr inbounds i8, ptr %5, i64 128
  %11 = load i32, ptr %10, align 8
  %12 = icmp eq i32 %11, 1
  %13 = select i1 %12, ptr @.str.9, ptr @.str.10
  %14 = getelementptr inbounds i8, ptr %5, i64 292
  %15 = load i8, ptr %14, align 4
  %16 = trunc i8 %15 to i1
  %17 = select i1 %16, ptr @.str.11, ptr @.str.9
  %18 = tail call i32 (ptr, ptr, ...) @fprintf(ptr noundef %1, ptr noundef nonnull @.str.8, ptr noundef %4, i32 noundef %7, ptr noundef nonnull %9, i32 noundef %11, ptr noundef nonnull %13, ptr noundef nonnull %17) #19
  %fputc = tail call i32 @fputc(i32 10, ptr %1)
  ret void
}